target datalayout = "e-m:e-p270:32:32-p271:32:32-p272:64:64-i64:64-i128:128-f80:128-n8:16:32:64-S128"
target triple = "x86_64-pc-linux-gnu"

%struct.ForeignScanState = type { %struct.ScanState, ptr, i64, ptr, ptr, ptr }
%struct.ScanState = type { %struct.PlanState, ptr, ptr, ptr }
%struct.PlanState = type { i32, ptr, ptr, ptr, ptr, ptr, ptr, ptr, ptr, ptr, ptr, ptr, ptr, ptr, ptr, ptr, ptr, ptr, i8, ptr, ptr, ptr, ptr, ptr, i8, i8, i8, i8, i8, i8, i8, i8 }
%struct.FdwRoutine = type { i32, ptr, ptr, ptr, ptr, ptr, ptr, ptr, ptr, ptr, ptr, ptr, ptr, ptr, ptr, ptr, ptr, ptr, ptr, ptr, ptr, ptr, ptr, ptr, ptr, ptr, ptr, ptr, ptr, ptr, ptr, ptr, ptr, ptr, ptr, ptr, ptr, ptr, ptr, ptr, ptr, ptr, ptr, ptr, ptr, ptr }

; Function Attrs: nounwind uwtable
define dso_local void @ExecShutdownForeignScan(ptr noundef %0) #0 {
  %2 = alloca ptr, align 8
  %3 = alloca ptr, align 8
  store ptr %0, ptr %2, align 8
  call void @llvm.lifetime.start.p0(i64 8, ptr %3) #5
  %4 = load ptr, ptr %2, align 8
  %5 = getelementptr inbounds nuw %struct.ForeignScanState, ptr %4, i32 0, i32 4
  %6 = load ptr, ptr %5, align 8
  store ptr %6, ptr %3, align 8
  %7 = load ptr, ptr %3, align 8
  %8 = getelementptr inbounds nuw %struct.FdwRoutine, ptr %7, i32 0, i32 40
  %9 = load ptr, ptr %8, align 8
  %10 = icmp ne ptr %9, null
  br i1 %10, label %11, label %16

11:                                               ; preds = %1
  %12 = load ptr, ptr %3, align 8
  %13 = getelementptr inbounds nuw %struct.FdwRoutine, ptr %12, i32 0, i32 40
  %14 = load ptr, ptr %13, align 8
  %15 = load ptr, ptr %2, align 8
  call void %14(ptr noundef %15)
  br label %16

16:                                               ; preds = %11, %1
  call void @llvm.lifetime.end.p0(i64 8, ptr %3) #5
  ret void
}