; Function Attrs: nounwind uwtable
define dso_local void @ExecShutdownForeignScan(ptr noundef %0) local_unnamed_addr #0 {
  %2 = getelementptr inbounds nuw i8, ptr %0, i64 248
  %3 = load ptr, ptr %2, align 8
  %4 = getelementptr inbounds nuw i8, ptr %3, i64 320
  %5 = load ptr, ptr %4, align 8
  %.not = icmp eq ptr %5, null
  br i1 %.not, label %7, label %6

6:                                                ; preds = %1
  tail call void %5(ptr noundef nonnull %0) #5
  br label %7

7:                                                ; preds = %6, %1
  ret void
}